Archive member included because of file (symbol)

c:/devkitPro/libnds/lib\libdswifi7.a(wifi_arm7.o)
                              main.o (installWifiFIFO)
c:/devkitPro/libnds/lib\libdswifi7.a(spinlock.o)
                              c:/devkitPro/libnds/lib\libdswifi7.a(wifi_arm7.o) (SLasm_Acquire)
c:/devkitPro/libnds/lib\libmm7.a(mm_main.o)
                              main.o (mmInstall)
c:/devkitPro/libnds/lib\libmm7.a(mm_mas.o)
                              c:/devkitPro/libnds/lib\libmm7.a(mm_main.o) (mm_achannels)
c:/devkitPro/libnds/lib\libmm7.a(mm_mas_arm.o)
                              c:/devkitPro/libnds/lib\libmm7.a(mm_mas.o) (mmAllocChannel)
c:/devkitPro/libnds/lib\libmm7.a(mm_comms7.o)
                              c:/devkitPro/libnds/lib\libmm7.a(mm_main.o) (mmSetupComms)
c:/devkitPro/libnds/lib\libmm7.a(mm_mixer_super.o)
                              c:/devkitPro/libnds/lib\libmm7.a(mm_main.o) (mm_mix_channels)
c:/devkitPro/libnds/lib\libmm7.a(mm_reverb.o)
                              c:/devkitPro/libnds/lib\libmm7.a(mm_comms7.o) (mmReverbEnable)
c:/devkitPro/libnds/lib\libmm7.a(mm_stream.o)
                              c:/devkitPro/libnds/lib\libmm7.a(mm_comms7.o) (mmStreamBegin)
c:/devkitPro/libnds/lib\libmm7.a(mm_effect.o)
                              c:/devkitPro/libnds/lib\libmm7.a(mm_comms7.o) (mm_sfx_clearmask)
c:/devkitPro/libnds/lib\libnds7.a(audio.o)
                              main.o (installSoundFIFO)
c:/devkitPro/libnds/lib\libnds7.a(clock.o)
                              main.o (initClockIRQ)
c:/devkitPro/libnds/lib\libnds7.a(input.o)
                              main.o (inputGetAndSend)
c:/devkitPro/libnds/lib\libnds7.a(microphone.o)
                              c:/devkitPro/libnds/lib\libnds7.a(audio.o) (micStopRecording)
c:/devkitPro/libnds/lib\libnds7.a(spi.o)
                              c:/devkitPro/libnds/lib\libnds7.a(audio.o) (writePowerManagement)
c:/devkitPro/libnds/lib\libnds7.a(system.o)
                              main.o (installSystemFIFO)
c:/devkitPro/libnds/lib\libnds7.a(touch.o)
                              c:/devkitPro/libnds/lib\libnds7.a(input.o) (touchReadXY)
c:/devkitPro/libnds/lib\libnds7.a(userSettings.o)
                              main.o (readUserSettings)
c:/devkitPro/libnds/lib\libnds7.a(fifosystem.o)
                              c:/devkitPro/libnds/lib\libdswifi7.a(wifi_arm7.o) (fifoSendValue32)
c:/devkitPro/libnds/lib\libnds7.a(interrupts.o)
                              main.o (irqSet)
c:/devkitPro/libnds/lib\libnds7.a(biosCalls.o)
                              nds_loader_arm7.o (swiSoftReset)
c:/devkitPro/libnds/lib\libnds7.a(interruptDispatcher.o)
                              c:/devkitPro/libnds/lib\libnds7.a(interrupts.o) (IntrMain)
c:/devkitpro/devkitarm/bin/../lib/gcc/arm-eabi/4.4.0\libgcc.a(_divsi3.o)
                              c:/devkitPro/libnds/lib\libnds7.a(audio.o) (__aeabi_idiv)
c:/devkitpro/devkitarm/bin/../lib/gcc/arm-eabi/4.4.0\libgcc.a(_dvmd_tls.o)
                              c:/devkitpro/devkitarm/bin/../lib/gcc/arm-eabi/4.4.0\libgcc.a(_divsi3.o) (__div0)
c:/devkitpro/devkitarm/bin/../lib/gcc/arm-eabi/4.4.0\libgcc.a(_call_via_rX.o)
                              c:/devkitPro/libnds/lib\libmm7.a(mm_comms7.o) (_call_via_r1)
c:/devkitpro/devkitarm/bin/../lib/gcc/arm-eabi/4.4.0/../../../../arm-eabi/lib\libg.a(lib_a-init.o)
                              c:/devkitpro/devkitarm/bin/../lib/gcc/arm-eabi/4.4.0/../../../../arm-eabi/lib/ds_arm7_crt0.o (__libc_init_array)
c:/devkitpro/devkitarm/bin/../lib/gcc/arm-eabi/4.4.0/../../../../arm-eabi/lib\libg.a(lib_a-memcpy.o)
                              c:/devkitPro/libnds/lib\libnds7.a(userSettings.o) (memcpy)
c:/devkitpro/devkitarm/bin/../lib/gcc/arm-eabi/4.4.0/../../../../arm-eabi/lib\libg.a(lib_a-memset.o)
                              c:/devkitPro/libnds/lib\libnds7.a(input.o) (memset)

Allocating common symbols
Common symbol       size              file

fifo_datamsg_data   0x40              c:/devkitPro/libnds/lib\libnds7.a(fifosystem.o)
arm7q               0x800             c:/devkitPro/libnds/lib\libdswifi7.a(wifi_arm7.o)
fifo_buffer         0x400             c:/devkitPro/libnds/lib\libnds7.a(fifosystem.o)
fifo_value32_func   0x40              c:/devkitPro/libnds/lib\libnds7.a(fifosystem.o)
fifo_address_func   0x40              c:/devkitPro/libnds/lib\libnds7.a(fifosystem.o)
fifo_value32_data   0x40              c:/devkitPro/libnds/lib\libnds7.a(fifosystem.o)
fifo_value32_queue  0x40              c:/devkitPro/libnds/lib\libnds7.a(fifosystem.o)
FlashData           0x200             c:/devkitPro/libnds/lib\libdswifi7.a(wifi_arm7.o)
fifo_data_queue     0x40              c:/devkitPro/libnds/lib\libnds7.a(fifosystem.o)
Keys                0x1               c:/devkitPro/libnds/lib\libnds7.a(input.o)
irqTable            0xc8              c:/devkitPro/libnds/lib\libnds7.a(interrupts.o)
fifo_address_data   0x40              c:/devkitPro/libnds/lib\libnds7.a(fifosystem.o)
fifo_datamsg_func   0x40              c:/devkitPro/libnds/lib\libnds7.a(fifosystem.o)
fifo_address_queue  0x40              c:/devkitPro/libnds/lib\libnds7.a(fifosystem.o)

Memory Configuration

Name             Origin             Length             Attributes
rom              0x08000000         0x02000000
iwram            0x037f8000         0x00018000
*default*        0x00000000         0xffffffff

Linker script and memory map

                0x037f8000                __iwram_start = 0x37f8000
                0x03810000                __iwram_top = 0x3810000
                0x0380ffa0                __sp_irq = (__iwram_top - 0x60)
                0x0380fea0                __sp_svc = (__sp_irq - 0x100)
                0x0380fda0                __sp_usr = (__sp_svc - 0x100)
                0x0380fff8                __irq_flags = (__iwram_top - 0x8)
                0x0380fffc                __irq_vector = (__iwram_top - 0x4)

.init           0x037f8000       0xe8
                0x037f8000                __text_start = .
 *(.init)
 .init          0x037f8000       0xd0 c:/devkitpro/devkitarm/bin/../lib/gcc/arm-eabi/4.4.0/../../../../arm-eabi/lib/ds_arm7_crt0.o
                0x037f8000                _start
 .init          0x037f80d0        0xc c:/devkitpro/devkitarm/bin/../lib/gcc/arm-eabi/4.4.0/crti.o
                0x037f80d0                _init
 .init          0x037f80dc        0xc c:/devkitpro/devkitarm/bin/../lib/gcc/arm-eabi/4.4.0/crtn.o
                0x037f80e8                . = ALIGN (0x4)

.plt
 *(.plt)

.text           0x037f80f0     0xad7c
 *(.text .stub .text.* .gnu.linkonce.t.*)
 .text.stub     0x037f80f0      0x158 linker stubs
 .text          0x037f82a0        0x0 c:/devkitpro/devkitarm/bin/../lib/gcc/arm-eabi/4.4.0/../../../../arm-eabi/lib/ds_arm7_crt0.o
 .text          0x037f82a0        0x0 c:/devkitpro/devkitarm/bin/../lib/gcc/arm-eabi/4.4.0/crti.o
 .text          0x037f82a0       0x94 c:/devkitpro/devkitarm/bin/../lib/gcc/arm-eabi/4.4.0/crtbegin.o
 .text          0x037f8334       0x90 main.o
                0x037f83b4                VcountHandler
                0x037f8334                main
                0x037f83a4                VblankHandler
 .text          0x037f83c4       0x40 nds_loader_arm7.o
                0x037f83c4                runNdsLoaderCheck
 .text          0x037f8404     0x3740 c:/devkitPro/libnds/lib\libdswifi7.a(wifi_arm7.o)
                0x037f9118                Wifi_Intr_TBTT
                0x037f8f54                Wifi_TxCheck
                0x037f86dc                Wifi_RFInit
                0x037fb8e0                InitFlashData
                0x037f85b8                Wifi_RFWrite
                0x037f89e0                Wifi_Shutdown
                0x037f9bb8                Wifi_SetSyncHandler
                0x037f97dc                Wifi_SendSharedKeyAuthPacket2
                0x037f8f6c                Wifi_Intr_CntOverflow
                0x037fab70                Wifi_Interrupt
                0x037f8dc0                Wifi_CopyFirstTxData
                0x037f8670                SetLedState
                0x037f8ae8                Wifi_MACRead
                0x037f8988                Wifi_RxSetup
                0x037f841c                ReadFlashBytes
                0x037f8fdc                Wifi_Intr_StartTx
                0x037fb720                GetWfcSettings
                0x037facb8                Wifi_SetChannel
                0x037f94cc                Wifi_SetMode
                0x037f94b0                Wifi_SetBeaconPeriod
                0x037f9888                Wifi_SendAssocPacket
                0x037fb68c                Wifi_WakeUp
                0x037f8bd4                Wifi_MACWrite
                0x037fb900                Wifi_Init
                0x037f93a0                Wifi_Stop
                0x037f8900                Wifi_BBInit
                0x037f8a8c                Wifi_CopyMacAddr
                0x037f8474                ReadFlashHWord
                0x037fb644                Wifi_Sync
                0x037f9134                erasemem
                0x037f9548                Wifi_TxQueue
                0x037f8974                Wifi_TxSetup
                0x037f91d8                Wifi_Start
                0x037f8c70                Wifi_QueueRxMacData
                0x037f9a80                Wifi_SendNullFrame
                0x037f9bb0                Wifi_CreateTxFrame
                0x037f8aa8                Wifi_CmpMacAddr
                0x037f9408                Wifi_SetWepKey
                0x037f9724                Wifi_SendOpenSystemAuthPacket
                0x037f8ee4                Wifi_TxRaw
                0x037f9780                Wifi_SendSharedKeyAuthPacket
                0x037f8944                Wifi_MacInit
                0x037f8538                Wifi_BBWrite
                0x037f9154                Wifi_Deinit
                0x037f963c                Wifi_GenMgtHeader
                0x037f9520                Wifi_DisableTempPowerSave
                0x037f8b38                Wifi_MACCopy
                0x037f9c38                Wifi_ProcessReceivedFrame
                0x037f84a0                crc16_slow
                0x037faf60                Wifi_Update
                0x037f9130                Wifi_Intr_DoNothing
                0x037f94f4                Wifi_SetPreambleType
                0x037f9b10                Wifi_SendPSPollFrame
                0x037f9bc8                installWifiFIFO
                0x037f8404                ReadFlashByte
                0x037f8ff0                Wifi_Intr_TxEnd
                0x037f86c0                ProxySetLedState
                0x037fa9f0                Wifi_Intr_RxEnd
                0x037f84f8                Wifi_BBRead
                0x037f946c                Wifi_SetWepMode
                0x037f85f4                PowerChip_ReadWrite
                0x037f8d88                Wifi_CheckTxBuf
 .text          0x037fbb44       0x5c c:/devkitPro/libnds/lib\libdswifi7.a(spinlock.o)
                0x037fbb44                SLasm_Acquire
                0x037fbb78                SLasm_Release
 .text          0x037fbba0      0x1f8 c:/devkitPro/libnds/lib\libmm7.a(mm_main.o)
                0x037fbba2                mpp_call_r1
                0x037fbc68                mmRestoreIRQ_t
                0x037fbc4c                mmSuspendIRQ_t
                0x037fbbae                mmLockChannels
                0x037fbc38                mmUnlockChannels
                0x037fbd10                mmGetSoundBank
                0x037fbba0                mpp_call_r7
                0x037fbba4                mpp_call_r2
                0x037fbba8                mmSetEventHandler
                0x037fbcf0                mmInstall
                0x037fbd1c                mmFrame
                0x037fbc8e                mmInit7
                0x037fbc88                mmIsInitialized
                0x037fbba6                mpp_call_r3
 .text          0x037fbd98     0x1b54 c:/devkitPro/libnds/lib\libmm7.a(mm_mas.o)
                0x037fbfec                mmSetModulePitch
                0x037fbf1c                mmPause
                0x037fbf4e                mmActiveSub
                0x037fbf64                mmSetJingleVolume
                0x037fbe3e                mmStart
                0x037fbde8                mm_reset_channels
                0x037fc428                mpp_Update_ACHN_notest
                0x037fc320                mpp_Channel_NewNote
                0x037fbe52                mmJingle
                0x037fbf38                mmResume
                0x037fbe58                mmPlayModule
                0x037fc02c                mmSetResolution
                0x037fbfba                mmSetModuleTempo
                0x037fca5e                mpp_Process_Effect
                0x037fbf54                mmSetModuleVolume
                0x037fc1a4                mppProcessTick
                0x037fbf48                mmActive
                0x037fc826                mpp_Process_VolumeCommand
                0x037fd5cc                IT_PitchTable
                0x037fbfa0                mmPosition
                0x037fc05c                mmStop
                0x037fd1ac                ST3_FREQTABLE
                0x037fc144                mmPulse
 .text          0x037fd8ec      0x648 c:/devkitPro/libnds/lib\libmm7.a(mm_mas_arm.o)
                0x037fdc8c                mmUpdateChannel_TN
                0x037fde8e                note_table_mod
                0x037fd8ec                mmAllocChannel
                0x037fde70                note_table_oct
                0x037fde2c                mmGetPeriod
                0x037fd960                mmReadPattern
                0x037fda4c                mmUpdateChannel_T0
 .text          0x037fdf34      0x7ec c:/devkitPro/libnds/lib\libmm7.a(mm_comms7.o)
                0x037fdf34                mmSetupComms
                0x037fe0c8                mmProcessComms
                0x037fe054                mmSendUpdateToARM9
                0x037fe088                mmARM9msg
 .text          0x037fe720     0x1688 c:/devkitPro/libnds/lib\libmm7.a(mm_mixer_super.o)
                0x037ffbb6                mmSelectMode
                0x037ffb4c                mmMixerSetFreq
                0x037ff3c0                mmVolumeTable
                0x037ffb9a                mmMixerSetVolume
                0x037ffba2                mmMixerSetPan
                0x037ffb86                mmMixerStopChannel
                0x037ffbb4                mmMixerInit
                0x037fe874                mmMixerMix
                0x037fe7a0                mmMixerPre
                0x037ffb90                mmMixerChannelActive
                0x037ffb6c                mmMixerMulFreq
                0x037ffb36                mmMixerSetSource
 .text          0x037ffda8      0x280 c:/devkitPro/libnds/lib\libmm7.a(mm_reverb.o)
                0x037fffb4                mmReverbStop
                0x037ffda8                mmReverbEnable
                0x037fff6c                mmReverbStart
                0x037ffe0a                mmReverbConfigure
                0x037ffdc6                mmReverbDisable
 .text          0x03800028      0x428 c:/devkitPro/libnds/lib\libmm7.a(mm_stream.o)
                0x038003f0                mmStreamEnd
                0x03800142                mmStreamUpdate
                0x03800324                mmStreamClose
                0x0380035a                mmStreamBegin
                0x03800028                mmStreamOpen
                0x03800108                mmStreamGetPosition
 .text          0x03800450      0x314 c:/devkitPro/libnds/lib\libmm7.a(mm_effect.o)
                0x038005c2                mmEffectVolume
                0x0380067a                mmSetEffectsVolume
                0x03800606                mmEffectCancel
                0x038005f2                mmEffectRate
                0x0380047c                mmEffect
                0x03800640                mmEffectRelease
                0x038005de                mmEffectPanning
                0x038006c8                mmUpdateEffects
                0x03800492                mmEffectEx
                0x03800688                mmEffectCancelAll
                0x03800666                mmEffectScaleRate
                0x03800450                mmResetEffects
 .text          0x03800764      0x3c4 c:/devkitPro/libnds/lib\libnds7.a(audio.o)
                0x038007d8                installSoundFIFO
                0x03800788                getFreePSGChannel
                0x03800884                soundCommandHandler
                0x03800b08                micSwapHandler
                0x038007fc                disableSound
                0x03800840                enableSound
                0x03800764                getFreeChannel
                0x038007ac                getFreeNoiseChannel
                0x0380099c                soundDataHandler
 .text          0x03800b28      0x430 c:/devkitPro/libnds/lib\libnds7.a(clock.o)
                0x03800b28                BCDToInteger
                0x03800c5c                rtcSetTime
                0x03800d74                resyncClock
                0x03800c84                rtcGetTime
                0x03800e9c                initClockIRQ
                0x03800f24                integerToBCD
                0x03800b4c                syncRTC
                0x03800ce4                rtcSetTimeAndDate
                0x03800e5c                rtcReset
                0x03800b5c                rtcTransaction
                0x03800d14                rtcGetTimeAndDate
 .text          0x03800f58       0xa8 c:/devkitPro/libnds/lib\libnds7.a(input.o)
                0x03800f58                inputGetAndSend
 .text          0x03801000      0x288 c:/devkitPro/libnds/lib\libnds7.a(microphone.o)
                0x03801080                micReadData8
                0x03801204                micStartRecording
                0x03801020                micReadData12
                0x03801154                micSetAmp
                0x038010dc                micTimerHandler
                0x038011ac                micStopRecording
 .text          0x03801288      0x108 c:/devkitPro/libnds/lib\libnds7.a(spi.o)
                0x03801288                writePowerManagement
                0x038012f0                readFirmware
 .text          0x03801390      0x130 c:/devkitPro/libnds/lib\libnds7.a(system.o)
                0x0380139c                installSystemFIFO
                0x038013e4                powerValueHandler
                0x03801390                sleepEnabled
                0x038013b4                systemSleep
 .text          0x038014c0      0x598 c:/devkitPro/libnds/lib\libnds7.a(touch.o)
                0x03801760                CheckStylus
                0x038016c4                touchRead
                0x03801548                readTouchValue
                0x03801730                touchReadTemperature
                0x038017f4                touchReadXY
                0x038014c0                UpdateRange
 .text          0x03801a58       0xe8 c:/devkitPro/libnds/lib\libnds7.a(userSettings.o)
                0x03801a58                readUserSettings
 .text          0x03801b40      0xbd0 c:/devkitPro/libnds/lib\libnds7.a(fifosystem.o)
                0x03801ef8                fifoCheckValue32
                0x03801cac                fifoSendValue32
                0x03802130                fifoGetDatamsg
                0x03801dd0                fifoGetValue32
                0x03801cf0                fifoGetAddress
                0x03801ed4                fifoCheckDatamsg
                0x03801d60                fifoSetAddressHandler
                0x03802698                fifoSendDatamsg
                0x03801c70                fifoSendAddress
                0x03801eb0                fifoCheckAddress
                0x03801e40                fifoSetValue32Handler
                0x03801fac                fifoInit
                0x03802604                fifoSetDatamsgHandler
 .text          0x03802710      0x1f4 c:/devkitPro/libnds/lib\libnds7.a(interrupts.o)
                0x0380280c                irqEnable
                0x03802714                irqSet
                0x0380286c                irqDisable
                0x03802788                irqInit
                0x03802710                irqDummy
                0x038027d8                irqInitHandler
                0x038028d0                irqClear
 *fill*         0x03802904        0xc ff
 .text          0x03802910       0x60 c:/devkitPro/libnds/lib\libnds7.a(biosCalls.o)
                0x03802920                swiSleep
                0x0380295a                swiDecompressLZSSVram
                0x03802942                swiFastCopy
                0x03802946                swiSqrt
                0x03802910                swiSoftReset
                0x0380294a                swiCRC16
                0x0380295e                swiDecompressHuffman
                0x0380292c                swiRemainder
                0x03802952                swiUnpackBits
                0x03802956                swiDecompressLZSSWram
                0x03802914                swiDelay
                0x03802932                swiDivMod
                0x03802966                swiDecompressRLEVram
                0x03802962                swiDecompressRLEWram
                0x03802928                swiDivide
                0x03802924                swiChangeSoundBias
                0x0380291c                swiWaitForVBlank
                0x03802918                swiIntrWait
                0x0380294e                swiIsDebugger
                0x0380293e                swiCopy
 .text          0x03802970       0xc8 c:/devkitPro/libnds/lib\libnds7.a(interruptDispatcher.o)
                0x03802970                IntrMain
 .text          0x03802a38      0x144 c:/devkitpro/devkitarm/bin/../lib/gcc/arm-eabi/4.4.0\libgcc.a(_divsi3.o)
                0x03802a38                __aeabi_idiv
                0x03802a38                __divsi3
                0x03802b64                __aeabi_idivmod
 .text          0x03802b7c        0x4 c:/devkitpro/devkitarm/bin/../lib/gcc/arm-eabi/4.4.0\libgcc.a(_dvmd_tls.o)
                0x03802b7c                __aeabi_ldiv0
                0x03802b7c                __div0
                0x03802b7c                __aeabi_idiv0
 .text          0x03802b80       0x3c c:/devkitpro/devkitarm/bin/../lib/gcc/arm-eabi/4.4.0\libgcc.a(_call_via_rX.o)
                0x03802b88                _call_via_r2
                0x03802b98                _call_via_r6
                0x03802b94                _call_via_r5
                0x03802b8c                _call_via_r3
                0x03802bac                _call_via_fp
                0x03802ba0                _call_via_r8
                0x03802b9c                _call_via_r7
                0x03802b80                _call_via_r0
                0x03802ba8                _call_via_sl
                0x03802bb4                _call_via_sp
                0x03802ba4                _call_via_r9
                0x03802b90                _call_via_r4
                0x03802b84                _call_via_r1
                0x03802bb0                _call_via_ip
                0x03802bb8                _call_via_lr
 .text          0x03802bbc       0xc8 c:/devkitpro/devkitarm/bin/../lib/gcc/arm-eabi/4.4.0/../../../../arm-eabi/lib\libg.a(lib_a-init.o)
                0x03802c04                __libc_init_array
                0x03802bbc                __libc_fini_array
 .text          0x03802c84       0xf0 c:/devkitpro/devkitarm/bin/../lib/gcc/arm-eabi/4.4.0/../../../../arm-eabi/lib\libg.a(lib_a-memcpy.o)
                0x03802c84                memcpy
 .text          0x03802d74       0xf8 c:/devkitpro/devkitarm/bin/../lib/gcc/arm-eabi/4.4.0/../../../../arm-eabi/lib\libg.a(lib_a-memset.o)
                0x03802d74                memset
 .text          0x03802e6c        0x0 c:/devkitpro/devkitarm/bin/../lib/gcc/arm-eabi/4.4.0/crtend.o
 .text          0x03802e6c        0x0 c:/devkitpro/devkitarm/bin/../lib/gcc/arm-eabi/4.4.0/crtn.o
 *(.text.*personality*)
 *(.gnu.warning)
 *(.glue_7t)
 .glue_7t       0x03802e6c        0x0 c:/devkitpro/devkitarm/bin/../lib/gcc/arm-eabi/4.4.0/../../../../arm-eabi/lib/ds_arm7_crt0.o
 .glue_7t       0x03802e6c        0x0 c:/devkitpro/devkitarm/bin/../lib/gcc/arm-eabi/4.4.0/crti.o
 .glue_7t       0x03802e6c        0x0 c:/devkitpro/devkitarm/bin/../lib/gcc/arm-eabi/4.4.0/crtbegin.o
 .glue_7t       0x03802e6c        0x0 main.o
 .glue_7t       0x03802e6c        0x0 nds_loader_arm7.o
 .glue_7t       0x03802e6c        0x0 c:/devkitPro/libnds/lib\libdswifi7.a(wifi_arm7.o)
 .glue_7t       0x03802e6c        0x0 c:/devkitPro/libnds/lib\libdswifi7.a(spinlock.o)
 .glue_7t       0x03802e6c        0x0 c:/devkitPro/libnds/lib\libmm7.a(mm_main.o)
 .glue_7t       0x03802e6c        0x0 c:/devkitPro/libnds/lib\libmm7.a(mm_mas.o)
 .glue_7t       0x03802e6c        0x0 c:/devkitPro/libnds/lib\libmm7.a(mm_mas_arm.o)
 .glue_7t       0x03802e6c        0x0 c:/devkitPro/libnds/lib\libmm7.a(mm_comms7.o)
 .glue_7t       0x03802e6c        0x0 c:/devkitPro/libnds/lib\libmm7.a(mm_mixer_super.o)
 .glue_7t       0x03802e6c        0x0 c:/devkitPro/libnds/lib\libmm7.a(mm_reverb.o)
 .glue_7t       0x03802e6c        0x0 c:/devkitPro/libnds/lib\libmm7.a(mm_stream.o)
 .glue_7t       0x03802e6c        0x0 c:/devkitPro/libnds/lib\libmm7.a(mm_effect.o)
 .glue_7t       0x03802e6c        0x0 c:/devkitPro/libnds/lib\libnds7.a(audio.o)
 .glue_7t       0x03802e6c        0x0 c:/devkitPro/libnds/lib\libnds7.a(clock.o)
 .glue_7t       0x03802e6c        0x0 c:/devkitPro/libnds/lib\libnds7.a(input.o)
 .glue_7t       0x03802e6c        0x0 c:/devkitPro/libnds/lib\libnds7.a(microphone.o)
 .glue_7t       0x03802e6c        0x0 c:/devkitPro/libnds/lib\libnds7.a(spi.o)
 .glue_7t       0x03802e6c        0x0 c:/devkitPro/libnds/lib\libnds7.a(system.o)
 .glue_7t       0x03802e6c        0x0 c:/devkitPro/libnds/lib\libnds7.a(touch.o)
 .glue_7t       0x03802e6c        0x0 c:/devkitPro/libnds/lib\libnds7.a(userSettings.o)
 .glue_7t       0x03802e6c        0x0 c:/devkitPro/libnds/lib\libnds7.a(fifosystem.o)
 .glue_7t       0x03802e6c        0x0 c:/devkitPro/libnds/lib\libnds7.a(interrupts.o)
 .glue_7t       0x03802e6c        0x0 c:/devkitPro/libnds/lib\libnds7.a(biosCalls.o)
 .glue_7t       0x03802e6c        0x0 c:/devkitPro/libnds/lib\libnds7.a(interruptDispatcher.o)
 .glue_7t       0x03802e6c        0x0 c:/devkitpro/devkitarm/bin/../lib/gcc/arm-eabi/4.4.0\libgcc.a(_divsi3.o)
 .glue_7t       0x03802e6c        0x0 c:/devkitpro/devkitarm/bin/../lib/gcc/arm-eabi/4.4.0\libgcc.a(_dvmd_tls.o)
 .glue_7t       0x03802e6c        0x0 c:/devkitpro/devkitarm/bin/../lib/gcc/arm-eabi/4.4.0\libgcc.a(_call_via_rX.o)
 .glue_7t       0x03802e6c        0x0 c:/devkitpro/devkitarm/bin/../lib/gcc/arm-eabi/4.4.0/../../../../arm-eabi/lib\libg.a(lib_a-init.o)
 .glue_7t       0x03802e6c        0x0 c:/devkitpro/devkitarm/bin/../lib/gcc/arm-eabi/4.4.0/../../../../arm-eabi/lib\libg.a(lib_a-memcpy.o)
 .glue_7t       0x03802e6c        0x0 c:/devkitpro/devkitarm/bin/../lib/gcc/arm-eabi/4.4.0/../../../../arm-eabi/lib\libg.a(lib_a-memset.o)
 .glue_7t       0x03802e6c        0x0 c:/devkitpro/devkitarm/bin/../lib/gcc/arm-eabi/4.4.0/crtend.o
 .glue_7t       0x03802e6c        0x0 c:/devkitpro/devkitarm/bin/../lib/gcc/arm-eabi/4.4.0/crtn.o
 *(.glue_7)
 .glue_7        0x03802e6c        0x0 c:/devkitpro/devkitarm/bin/../lib/gcc/arm-eabi/4.4.0/../../../../arm-eabi/lib/ds_arm7_crt0.o
 .glue_7        0x03802e6c        0x0 c:/devkitpro/devkitarm/bin/../lib/gcc/arm-eabi/4.4.0/crti.o
 .glue_7        0x03802e6c        0x0 c:/devkitpro/devkitarm/bin/../lib/gcc/arm-eabi/4.4.0/crtbegin.o
 .glue_7        0x03802e6c        0x0 main.o
 .glue_7        0x03802e6c        0x0 nds_loader_arm7.o
 .glue_7        0x03802e6c        0x0 c:/devkitPro/libnds/lib\libdswifi7.a(wifi_arm7.o)
 .glue_7        0x03802e6c        0x0 c:/devkitPro/libnds/lib\libdswifi7.a(spinlock.o)
 .glue_7        0x03802e6c        0x0 c:/devkitPro/libnds/lib\libmm7.a(mm_main.o)
 .glue_7        0x03802e6c        0x0 c:/devkitPro/libnds/lib\libmm7.a(mm_mas.o)
 .glue_7        0x03802e6c        0x0 c:/devkitPro/libnds/lib\libmm7.a(mm_mas_arm.o)
 .glue_7        0x03802e6c        0x0 c:/devkitPro/libnds/lib\libmm7.a(mm_comms7.o)
 .glue_7        0x03802e6c        0x0 c:/devkitPro/libnds/lib\libmm7.a(mm_mixer_super.o)
 .glue_7        0x03802e6c        0x0 c:/devkitPro/libnds/lib\libmm7.a(mm_reverb.o)
 .glue_7        0x03802e6c        0x0 c:/devkitPro/libnds/lib\libmm7.a(mm_stream.o)
 .glue_7        0x03802e6c        0x0 c:/devkitPro/libnds/lib\libmm7.a(mm_effect.o)
 .glue_7        0x03802e6c        0x0 c:/devkitPro/libnds/lib\libnds7.a(audio.o)
 .glue_7        0x03802e6c        0x0 c:/devkitPro/libnds/lib\libnds7.a(clock.o)
 .glue_7        0x03802e6c        0x0 c:/devkitPro/libnds/lib\libnds7.a(input.o)
 .glue_7        0x03802e6c        0x0 c:/devkitPro/libnds/lib\libnds7.a(microphone.o)
 .glue_7        0x03802e6c        0x0 c:/devkitPro/libnds/lib\libnds7.a(spi.o)
 .glue_7        0x03802e6c        0x0 c:/devkitPro/libnds/lib\libnds7.a(system.o)
 .glue_7        0x03802e6c        0x0 c:/devkitPro/libnds/lib\libnds7.a(touch.o)
 .glue_7        0x03802e6c        0x0 c:/devkitPro/libnds/lib\libnds7.a(userSettings.o)
 .glue_7        0x03802e6c        0x0 c:/devkitPro/libnds/lib\libnds7.a(fifosystem.o)
 .glue_7        0x03802e6c        0x0 c:/devkitPro/libnds/lib\libnds7.a(interrupts.o)
 .glue_7        0x03802e6c        0x0 c:/devkitPro/libnds/lib\libnds7.a(biosCalls.o)
 .glue_7        0x03802e6c        0x0 c:/devkitPro/libnds/lib\libnds7.a(interruptDispatcher.o)
 .glue_7        0x03802e6c        0x0 c:/devkitpro/devkitarm/bin/../lib/gcc/arm-eabi/4.4.0\libgcc.a(_divsi3.o)
 .glue_7        0x03802e6c        0x0 c:/devkitpro/devkitarm/bin/../lib/gcc/arm-eabi/4.4.0\libgcc.a(_dvmd_tls.o)
 .glue_7        0x03802e6c        0x0 c:/devkitpro/devkitarm/bin/../lib/gcc/arm-eabi/4.4.0\libgcc.a(_call_via_rX.o)
 .glue_7        0x03802e6c        0x0 c:/devkitpro/devkitarm/bin/../lib/gcc/arm-eabi/4.4.0/../../../../arm-eabi/lib\libg.a(lib_a-init.o)
 .glue_7        0x03802e6c        0x0 c:/devkitpro/devkitarm/bin/../lib/gcc/arm-eabi/4.4.0/../../../../arm-eabi/lib\libg.a(lib_a-memcpy.o)
 .glue_7        0x03802e6c        0x0 c:/devkitpro/devkitarm/bin/../lib/gcc/arm-eabi/4.4.0/../../../../arm-eabi/lib\libg.a(lib_a-memset.o)
 .glue_7        0x03802e6c        0x0 c:/devkitpro/devkitarm/bin/../lib/gcc/arm-eabi/4.4.0/crtend.o
 .glue_7        0x03802e6c        0x0 c:/devkitpro/devkitarm/bin/../lib/gcc/arm-eabi/4.4.0/crtn.o
 *(.vfp11_veneer)
 .vfp11_veneer  0x03802e6c        0x0 c:/devkitpro/devkitarm/bin/../lib/gcc/arm-eabi/4.4.0/../../../../arm-eabi/lib/ds_arm7_crt0.o
 .vfp11_veneer  0x03802e6c        0x0 c:/devkitpro/devkitarm/bin/../lib/gcc/arm-eabi/4.4.0/crti.o
 .vfp11_veneer  0x03802e6c        0x0 c:/devkitpro/devkitarm/bin/../lib/gcc/arm-eabi/4.4.0/crtbegin.o
 .vfp11_veneer  0x03802e6c        0x0 main.o
 .vfp11_veneer  0x03802e6c        0x0 nds_loader_arm7.o
 .vfp11_veneer  0x03802e6c        0x0 c:/devkitPro/libnds/lib\libdswifi7.a(wifi_arm7.o)
 .vfp11_veneer  0x03802e6c        0x0 c:/devkitPro/libnds/lib\libdswifi7.a(spinlock.o)
 .vfp11_veneer  0x03802e6c        0x0 c:/devkitPro/libnds/lib\libmm7.a(mm_main.o)
 .vfp11_veneer  0x03802e6c        0x0 c:/devkitPro/libnds/lib\libmm7.a(mm_mas.o)
 .vfp11_veneer  0x03802e6c        0x0 c:/devkitPro/libnds/lib\libmm7.a(mm_mas_arm.o)
 .vfp11_veneer  0x03802e6c        0x0 c:/devkitPro/libnds/lib\libmm7.a(mm_comms7.o)
 .vfp11_veneer  0x03802e6c        0x0 c:/devkitPro/libnds/lib\libmm7.a(mm_mixer_super.o)
 .vfp11_veneer  0x03802e6c        0x0 c:/devkitPro/libnds/lib\libmm7.a(mm_reverb.o)
 .vfp11_veneer  0x03802e6c        0x0 c:/devkitPro/libnds/lib\libmm7.a(mm_stream.o)
 .vfp11_veneer  0x03802e6c        0x0 c:/devkitPro/libnds/lib\libmm7.a(mm_effect.o)
 .vfp11_veneer  0x03802e6c        0x0 c:/devkitPro/libnds/lib\libnds7.a(audio.o)
 .vfp11_veneer  0x03802e6c        0x0 c:/devkitPro/libnds/lib\libnds7.a(clock.o)
 .vfp11_veneer  0x03802e6c        0x0 c:/devkitPro/libnds/lib\libnds7.a(input.o)
 .vfp11_veneer  0x03802e6c        0x0 c:/devkitPro/libnds/lib\libnds7.a(microphone.o)
 .vfp11_veneer  0x03802e6c        0x0 c:/devkitPro/libnds/lib\libnds7.a(spi.o)
 .vfp11_veneer  0x03802e6c        0x0 c:/devkitPro/libnds/lib\libnds7.a(system.o)
 .vfp11_veneer  0x03802e6c        0x0 c:/devkitPro/libnds/lib\libnds7.a(touch.o)
 .vfp11_veneer  0x03802e6c        0x0 c:/devkitPro/libnds/lib\libnds7.a(userSettings.o)
 .vfp11_veneer  0x03802e6c        0x0 c:/devkitPro/libnds/lib\libnds7.a(fifosystem.o)
 .vfp11_veneer  0x03802e6c        0x0 c:/devkitPro/libnds/lib\libnds7.a(interrupts.o)
 .vfp11_veneer  0x03802e6c        0x0 c:/devkitPro/libnds/lib\libnds7.a(biosCalls.o)
 .vfp11_veneer  0x03802e6c        0x0 c:/devkitPro/libnds/lib\libnds7.a(interruptDispatcher.o)
 .vfp11_veneer  0x03802e6c        0x0 c:/devkitpro/devkitarm/bin/../lib/gcc/arm-eabi/4.4.0\libgcc.a(_divsi3.o)
 .vfp11_veneer  0x03802e6c        0x0 c:/devkitpro/devkitarm/bin/../lib/gcc/arm-eabi/4.4.0\libgcc.a(_dvmd_tls.o)
 .vfp11_veneer  0x03802e6c        0x0 c:/devkitpro/devkitarm/bin/../lib/gcc/arm-eabi/4.4.0\libgcc.a(_call_via_rX.o)
 .vfp11_veneer  0x03802e6c        0x0 c:/devkitpro/devkitarm/bin/../lib/gcc/arm-eabi/4.4.0/../../../../arm-eabi/lib\libg.a(lib_a-init.o)
 .vfp11_veneer  0x03802e6c        0x0 c:/devkitpro/devkitarm/bin/../lib/gcc/arm-eabi/4.4.0/../../../../arm-eabi/lib\libg.a(lib_a-memcpy.o)
 .vfp11_veneer  0x03802e6c        0x0 c:/devkitpro/devkitarm/bin/../lib/gcc/arm-eabi/4.4.0/../../../../arm-eabi/lib\libg.a(lib_a-memset.o)
 .vfp11_veneer  0x03802e6c        0x0 c:/devkitpro/devkitarm/bin/../lib/gcc/arm-eabi/4.4.0/crtend.o
 .vfp11_veneer  0x03802e6c        0x0 c:/devkitpro/devkitarm/bin/../lib/gcc/arm-eabi/4.4.0/crtn.o
                0x03802e6c                . = ALIGN (0x4)

.v4_bx          0x00000000        0x0
 .v4_bx         0x00000000        0x0 c:/devkitpro/devkitarm/bin/../lib/gcc/arm-eabi/4.4.0/../../../../arm-eabi/lib/ds_arm7_crt0.o
 .v4_bx         0x00000000        0x0 c:/devkitpro/devkitarm/bin/../lib/gcc/arm-eabi/4.4.0/crti.o
 .v4_bx         0x00000000        0x0 c:/devkitpro/devkitarm/bin/../lib/gcc/arm-eabi/4.4.0/crtbegin.o
 .v4_bx         0x00000000        0x0 main.o
 .v4_bx         0x00000000        0x0 nds_loader_arm7.o
 .v4_bx         0x00000000        0x0 c:/devkitPro/libnds/lib\libdswifi7.a(wifi_arm7.o)
 .v4_bx         0x00000000        0x0 c:/devkitPro/libnds/lib\libdswifi7.a(spinlock.o)
 .v4_bx         0x00000000        0x0 c:/devkitPro/libnds/lib\libmm7.a(mm_main.o)
 .v4_bx         0x00000000        0x0 c:/devkitPro/libnds/lib\libmm7.a(mm_mas.o)
 .v4_bx         0x00000000        0x0 c:/devkitPro/libnds/lib\libmm7.a(mm_mas_arm.o)
 .v4_bx         0x00000000        0x0 c:/devkitPro/libnds/lib\libmm7.a(mm_comms7.o)
 .v4_bx         0x00000000        0x0 c:/devkitPro/libnds/lib\libmm7.a(mm_mixer_super.o)
 .v4_bx         0x00000000        0x0 c:/devkitPro/libnds/lib\libmm7.a(mm_reverb.o)
 .v4_bx         0x00000000        0x0 c:/devkitPro/libnds/lib\libmm7.a(mm_stream.o)
 .v4_bx         0x00000000        0x0 c:/devkitPro/libnds/lib\libmm7.a(mm_effect.o)
 .v4_bx         0x00000000        0x0 c:/devkitPro/libnds/lib\libnds7.a(audio.o)
 .v4_bx         0x00000000        0x0 c:/devkitPro/libnds/lib\libnds7.a(clock.o)
 .v4_bx         0x00000000        0x0 c:/devkitPro/libnds/lib\libnds7.a(input.o)
 .v4_bx         0x00000000        0x0 c:/devkitPro/libnds/lib\libnds7.a(microphone.o)
 .v4_bx         0x00000000        0x0 c:/devkitPro/libnds/lib\libnds7.a(spi.o)
 .v4_bx         0x00000000        0x0 c:/devkitPro/libnds/lib\libnds7.a(system.o)
 .v4_bx         0x00000000        0x0 c:/devkitPro/libnds/lib\libnds7.a(touch.o)
 .v4_bx         0x00000000        0x0 c:/devkitPro/libnds/lib\libnds7.a(userSettings.o)
 .v4_bx         0x00000000        0x0 c:/devkitPro/libnds/lib\libnds7.a(fifosystem.o)
 .v4_bx         0x00000000        0x0 c:/devkitPro/libnds/lib\libnds7.a(interrupts.o)
 .v4_bx         0x00000000        0x0 c:/devkitPro/libnds/lib\libnds7.a(biosCalls.o)
 .v4_bx         0x00000000        0x0 c:/devkitPro/libnds/lib\libnds7.a(interruptDispatcher.o)
 .v4_bx         0x00000000        0x0 c:/devkitpro/devkitarm/bin/../lib/gcc/arm-eabi/4.4.0\libgcc.a(_divsi3.o)
 .v4_bx         0x00000000        0x0 c:/devkitpro/devkitarm/bin/../lib/gcc/arm-eabi/4.4.0\libgcc.a(_dvmd_tls.o)
 .v4_bx         0x00000000        0x0 c:/devkitpro/devkitarm/bin/../lib/gcc/arm-eabi/4.4.0\libgcc.a(_call_via_rX.o)
 .v4_bx         0x00000000        0x0 c:/devkitpro/devkitarm/bin/../lib/gcc/arm-eabi/4.4.0/../../../../arm-eabi/lib\libg.a(lib_a-init.o)
 .v4_bx         0x00000000        0x0 c:/devkitpro/devkitarm/bin/../lib/gcc/arm-eabi/4.4.0/../../../../arm-eabi/lib\libg.a(lib_a-memcpy.o)
 .v4_bx         0x00000000        0x0 c:/devkitpro/devkitarm/bin/../lib/gcc/arm-eabi/4.4.0/../../../../arm-eabi/lib\libg.a(lib_a-memset.o)
 .v4_bx         0x00000000        0x0 c:/devkitpro/devkitarm/bin/../lib/gcc/arm-eabi/4.4.0/crtend.o
 .v4_bx         0x00000000        0x0 c:/devkitpro/devkitarm/bin/../lib/gcc/arm-eabi/4.4.0/crtn.o

.fini           0x03802e6c       0x18
 *(.fini)
 .fini          0x03802e6c        0xc c:/devkitpro/devkitarm/bin/../lib/gcc/arm-eabi/4.4.0/crti.o
                0x03802e6c                _fini
 .fini          0x03802e78        0xc c:/devkitpro/devkitarm/bin/../lib/gcc/arm-eabi/4.4.0/crtn.o
                0x03802e84                __text_end = .

.rodata         0x03802e84       0x1c
 *(.rodata)
 .rodata        0x03802e84       0x1c c:/devkitPro/libnds/lib\libnds7.a(clock.o)
 *all.rodata*(*)
 *(.roda)
 *(.rodata.*)
 *(.gnu.linkonce.r*)
                0x03802ea0                . = ALIGN (0x4)

.ARM.extab
 *(.ARM.extab* .gnu.linkonce.armextab.*)
                0x03802ea0                __exidx_start = .

.ARM.exidx
 *(.ARM.exidx* .gnu.linkonce.armexidx.*)
                0x03802ea0                __exidx_end = .
                0x03802ea0                . = ALIGN (0x4)
                0x03802ea0                PROVIDE (__preinit_array_start, .)

.preinit_array
 *(.preinit_array)
                0x03802ea0                PROVIDE (__preinit_array_end, .)
                0x03802ea0                PROVIDE (__init_array_start, .)

.init_array     0x03802ea0        0x4
 *(.init_array)
 .init_array    0x03802ea0        0x4 c:/devkitpro/devkitarm/bin/../lib/gcc/arm-eabi/4.4.0/crtbegin.o
                0x03802ea4                PROVIDE (__init_array_end, .)
                0x03802ea4                PROVIDE (__fini_array_start, .)

.fini_array     0x03802ea4        0x4
 *(.fini_array)
 .fini_array    0x03802ea4        0x4 c:/devkitpro/devkitarm/bin/../lib/gcc/arm-eabi/4.4.0/crtbegin.o
                0x03802ea8                PROVIDE (__fini_array_end, .)

.ctors          0x03802ea8        0x0
 *crtbegin.o(.ctors)
 *(EXCLUDE_FILE(*crtend.o) .ctors)
 *(SORT(.ctors.*))
 *(.ctors)
                0x03802ea8                . = ALIGN (0x4)

.dtors          0x03802ea8        0x0
 *crtbegin.o(.dtors)
 *(EXCLUDE_FILE(*crtend.o) .dtors)
 *(SORT(.dtors.*))
 *(.dtors)
                0x03802ea8                . = ALIGN (0x4)

.eh_frame       0x03802ea8       0x7c
 *(.eh_frame)
 .eh_frame      0x03802ea8        0x0 c:/devkitpro/devkitarm/bin/../lib/gcc/arm-eabi/4.4.0/crtbegin.o
 .eh_frame      0x03802ea8       0x5c main.o
 .eh_frame      0x03802f04       0x1c nds_loader_arm7.o
                                 0x30 (size before relaxing)
 .eh_frame      0x03802f20        0x4 c:/devkitpro/devkitarm/bin/../lib/gcc/arm-eabi/4.4.0/crtend.o
                0x03802f24                . = ALIGN (0x4)

.gcc_except_table
                0x03802f24        0x0
 *(.gcc_except_table)
                0x03802f24                . = ALIGN (0x4)

.jcr            0x03802f24        0x4
 *(.jcr)
 .jcr           0x03802f24        0x0 c:/devkitpro/devkitarm/bin/../lib/gcc/arm-eabi/4.4.0/crtbegin.o
 .jcr           0x03802f24        0x4 c:/devkitpro/devkitarm/bin/../lib/gcc/arm-eabi/4.4.0/crtend.o

.got
 *(.got.plt)
 *(.got)

.iwram          0x03802f28        0x0
                0x03802f28                __iwram_start = ABSOLUTE (.)
 *(.iwram)
 *iwram.*(.text)
                0x03802f28                . = ALIGN (0x4)
                0x03802f28                __iwram_end = ABSOLUTE (.)

.data           0x03802f28      0x12c
                0x03802f28                __data_start = ABSOLUTE (.)
 *(.data)
 .data          0x03802f28        0x0 c:/devkitpro/devkitarm/bin/../lib/gcc/arm-eabi/4.4.0/../../../../arm-eabi/lib/ds_arm7_crt0.o
 .data          0x03802f28        0x0 c:/devkitpro/devkitarm/bin/../lib/gcc/arm-eabi/4.4.0/crti.o
 .data          0x03802f28        0x4 c:/devkitpro/devkitarm/bin/../lib/gcc/arm-eabi/4.4.0/crtbegin.o
                0x03802f28                __dso_handle
 .data          0x03802f2c        0x0 main.o
 .data          0x03802f2c        0x0 nds_loader_arm7.o
 .data          0x03802f2c      0x114 c:/devkitPro/libnds/lib\libdswifi7.a(wifi_arm7.o)
                0x03802f6c                MAC_Reglist
                0x03802fc4                MAC_Vallist
                0x03802f2c                RF_Reglist
                0x0380301c                count_ofs_list
 .data          0x03803040        0x0 c:/devkitPro/libnds/lib\libdswifi7.a(spinlock.o)
 .data          0x03803040        0x0 c:/devkitPro/libnds/lib\libmm7.a(mm_main.o)
 .data          0x03803040        0x0 c:/devkitPro/libnds/lib\libmm7.a(mm_mas.o)
 .data          0x03803040        0x0 c:/devkitPro/libnds/lib\libmm7.a(mm_mas_arm.o)
 .data          0x03803040        0x0 c:/devkitPro/libnds/lib\libmm7.a(mm_comms7.o)
 .data          0x03803040        0x0 c:/devkitPro/libnds/lib\libmm7.a(mm_mixer_super.o)
 .data          0x03803040        0x0 c:/devkitPro/libnds/lib\libmm7.a(mm_reverb.o)
 .data          0x03803040        0x0 c:/devkitPro/libnds/lib\libmm7.a(mm_stream.o)
 .data          0x03803040        0x0 c:/devkitPro/libnds/lib\libmm7.a(mm_effect.o)
 .data          0x03803040        0x0 c:/devkitPro/libnds/lib\libnds7.a(audio.o)
 .data          0x03803040        0x0 c:/devkitPro/libnds/lib\libnds7.a(clock.o)
 .data          0x03803040        0x0 c:/devkitPro/libnds/lib\libnds7.a(input.o)
 .data          0x03803040        0x1 c:/devkitPro/libnds/lib\libnds7.a(microphone.o)
 .data          0x03803041        0x0 c:/devkitPro/libnds/lib\libnds7.a(spi.o)
 .data          0x03803041        0x1 c:/devkitPro/libnds/lib\libnds7.a(system.o)
                0x03803041                sleepIsEnabled
 .data          0x03803042        0x1 c:/devkitPro/libnds/lib\libnds7.a(touch.o)
 .data          0x03803043        0x0 c:/devkitPro/libnds/lib\libnds7.a(userSettings.o)
 *fill*         0x03803043        0x1 ff
 .data          0x03803044       0x10 c:/devkitPro/libnds/lib\libnds7.a(fifosystem.o)
                0x03803050                fifo_receive_queue
                0x03803044                fifo_freewords
                0x03803048                fifo_send_queue
                0x0380304c                fifo_buffer_free
 .data          0x03803054        0x0 c:/devkitPro/libnds/lib\libnds7.a(interrupts.o)
 .data          0x03803054        0x0 c:/devkitPro/libnds/lib\libnds7.a(biosCalls.o)
 .data          0x03803054        0x0 c:/devkitPro/libnds/lib\libnds7.a(interruptDispatcher.o)
 .data          0x03803054        0x0 c:/devkitpro/devkitarm/bin/../lib/gcc/arm-eabi/4.4.0\libgcc.a(_divsi3.o)
 .data          0x03803054        0x0 c:/devkitpro/devkitarm/bin/../lib/gcc/arm-eabi/4.4.0\libgcc.a(_dvmd_tls.o)
 .data          0x03803054        0x0 c:/devkitpro/devkitarm/bin/../lib/gcc/arm-eabi/4.4.0\libgcc.a(_call_via_rX.o)
 .data          0x03803054        0x0 c:/devkitpro/devkitarm/bin/../lib/gcc/arm-eabi/4.4.0/../../../../arm-eabi/lib\libg.a(lib_a-init.o)
 .data          0x03803054        0x0 c:/devkitpro/devkitarm/bin/../lib/gcc/arm-eabi/4.4.0/../../../../arm-eabi/lib\libg.a(lib_a-memcpy.o)
 .data          0x03803054        0x0 c:/devkitpro/devkitarm/bin/../lib/gcc/arm-eabi/4.4.0/../../../../arm-eabi/lib\libg.a(lib_a-memset.o)
 .data          0x03803054        0x0 c:/devkitpro/devkitarm/bin/../lib/gcc/arm-eabi/4.4.0/crtend.o
 .data          0x03803054        0x0 c:/devkitpro/devkitarm/bin/../lib/gcc/arm-eabi/4.4.0/crtn.o
 *(.data.*)
 *(.gnu.linkonce.d*)
                0x03803054                . = ALIGN (0x4)
                0x03803054                __data_end = ABSOLUTE (.)

.bss            0x03803054     0x403c
                0x03803054                __bss_start = ABSOLUTE (.)
                0x03803054                __bss_start__ = ABSOLUTE (.)
 *(.dynbss)
 *(.gnu.linkonce.b*)
 *(.bss*)
 .bss           0x03803054        0x0 c:/devkitpro/devkitarm/bin/../lib/gcc/arm-eabi/4.4.0/../../../../arm-eabi/lib/ds_arm7_crt0.o
 .bss           0x03803054        0x0 c:/devkitpro/devkitarm/bin/../lib/gcc/arm-eabi/4.4.0/crti.o
 .bss           0x03803054       0x1c c:/devkitpro/devkitarm/bin/../lib/gcc/arm-eabi/4.4.0/crtbegin.o
 .bss           0x03803070        0x0 main.o
 .bss           0x03803070        0x0 nds_loader_arm7.o
 .bss           0x03803070       0x18 c:/devkitPro/libnds/lib\libdswifi7.a(wifi_arm7.o)
                0x03803078                chdata_save5
                0x03803084                keepalive_time
                0x03803070                led_state
                0x03803074                WifiData
                0x0380307c                synchandler
                0x03803080                arm7qlen
 .bss           0x03803088        0x0 c:/devkitPro/libnds/lib\libdswifi7.a(spinlock.o)
 .bss           0x03803088      0x89c c:/devkitPro/libnds/lib\libmm7.a(mm_main.o)
                0x03803920                mmInitialized
                0x03803090                mmModuleBank
                0x0380309c                mm_vblank_function
                0x03803088                mmCallback
                0x03803098                mm_ch_mask
                0x0380308c                mmModuleCount
                0x03803094                mmSampleBank
 .bss           0x03803924      0x148 c:/devkitPro/libnds/lib\libmm7.a(mm_mas.o)
                0x038039b9                mpp_clayer
                0x03803994                mpp_vars
                0x038039a4                mpp_layerp
                0x038039c4                mm_num_mch
                0x038039a8                mpp_channels
                0x038039b8                mpp_nchannels
                0x0380395c                mmLayerSub
                0x03803924                mmLayerMain
                0x038039c8                mm_num_ach
                0x038039c0                mm_pchannels
                0x038039bc                mm_achannels
                0x038039cc                mm_schannels
 .bss           0x03803a6c        0x0 c:/devkitPro/libnds/lib\libmm7.a(mm_mas_arm.o)
 .bss           0x03803a6c      0x10c c:/devkitPro/libnds/lib\libmm7.a(mm_comms7.o)
 .bss           0x03803b78     0x2364 c:/devkitPro/libnds/lib\libmm7.a(mm_mixer_super.o)
                0x03803b78                mm_mix_channels
                0x03805ed9                mm_mixing_mode
 .bss           0x03805edc        0x8 c:/devkitPro/libnds/lib\libmm7.a(mm_reverb.o)
 .bss           0x03805ee4       0x2c c:/devkitPro/libnds/lib\libmm7.a(mm_stream.o)
 .bss           0x03805f10       0x30 c:/devkitPro/libnds/lib\libmm7.a(mm_effect.o)
                0x03805f38                mm_sfx_clearmask
                0x03805f34                mm_sfx_bitmask
 .bss           0x03805f40        0x0 c:/devkitPro/libnds/lib\libnds7.a(audio.o)
 .bss           0x03805f40        0x0 c:/devkitPro/libnds/lib\libnds7.a(clock.o)
 .bss           0x03805f40        0x8 c:/devkitPro/libnds/lib\libnds7.a(input.o)
 .bss           0x03805f48       0x20 c:/devkitPro/libnds/lib\libnds7.a(microphone.o)
 .bss           0x03805f68        0x0 c:/devkitPro/libnds/lib\libnds7.a(spi.o)
 .bss           0x03805f68        0x0 c:/devkitPro/libnds/lib\libnds7.a(system.o)
 .bss           0x03805f68       0x14 c:/devkitPro/libnds/lib\libnds7.a(touch.o)
 .bss           0x03805f7c        0x0 c:/devkitPro/libnds/lib\libnds7.a(userSettings.o)
 .bss           0x03805f7c        0x8 c:/devkitPro/libnds/lib\libnds7.a(fifosystem.o)
                0x03805f80                processing
 .bss           0x03805f84        0x0 c:/devkitPro/libnds/lib\libnds7.a(interrupts.o)
 .bss           0x03805f84        0x0 c:/devkitPro/libnds/lib\libnds7.a(biosCalls.o)
 .bss           0x03805f84        0x0 c:/devkitPro/libnds/lib\libnds7.a(interruptDispatcher.o)
 .bss           0x03805f84        0x0 c:/devkitpro/devkitarm/bin/../lib/gcc/arm-eabi/4.4.0\libgcc.a(_divsi3.o)
 .bss           0x03805f84        0x0 c:/devkitpro/devkitarm/bin/../lib/gcc/arm-eabi/4.4.0\libgcc.a(_dvmd_tls.o)
 .bss           0x03805f84        0x0 c:/devkitpro/devkitarm/bin/../lib/gcc/arm-eabi/4.4.0\libgcc.a(_call_via_rX.o)
 .bss           0x03805f84        0x0 c:/devkitpro/devkitarm/bin/../lib/gcc/arm-eabi/4.4.0/../../../../arm-eabi/lib\libg.a(lib_a-init.o)
 .bss           0x03805f84        0x0 c:/devkitpro/devkitarm/bin/../lib/gcc/arm-eabi/4.4.0/../../../../arm-eabi/lib\libg.a(lib_a-memcpy.o)
 .bss           0x03805f84        0x0 c:/devkitpro/devkitarm/bin/../lib/gcc/arm-eabi/4.4.0/../../../../arm-eabi/lib\libg.a(lib_a-memset.o)
 .bss           0x03805f84        0x0 c:/devkitpro/devkitarm/bin/../lib/gcc/arm-eabi/4.4.0/crtend.o
 .bss           0x03805f84        0x0 c:/devkitpro/devkitarm/bin/../lib/gcc/arm-eabi/4.4.0/crtn.o
 *(COMMON)
 COMMON         0x03805f84      0xa00 c:/devkitPro/libnds/lib\libdswifi7.a(wifi_arm7.o)
                0x03805f84                arm7q
                0x03806784                FlashData
 COMMON         0x03806984        0x1 c:/devkitPro/libnds/lib\libnds7.a(input.o)
                0x03806984                Keys
 *fill*         0x03806985        0x3 00
 COMMON         0x03806988      0x640 c:/devkitPro/libnds/lib\libnds7.a(fifosystem.o)
                0x03806988                fifo_datamsg_data
                0x038069c8                fifo_buffer
                0x03806dc8                fifo_value32_func
                0x03806e08                fifo_address_func
                0x03806e48                fifo_value32_data
                0x03806e88                fifo_value32_queue
                0x03806ec8                fifo_data_queue
                0x03806f08                fifo_address_data
                0x03806f48                fifo_datamsg_func
                0x03806f88                fifo_address_queue
 COMMON         0x03806fc8       0xc8 c:/devkitPro/libnds/lib\libnds7.a(interrupts.o)
                0x03806fc8                irqTable
                0x03807090                . = ALIGN (0x4)
                0x03807090                __bss_end = .
                0x03807090                __bss_end__ = .
                0x03807090                _end = .
                0x03807090                __end__ = .
                0x03807090                PROVIDE (end, _end)

.stab
 *(.stab)

.stabstr
 *(.stabstr)

.stab.excl
 *(.stab.excl)

.stab.exclstr
 *(.stab.exclstr)

.stab.index
 *(.stab.index)

.stab.indexstr
 *(.stab.indexstr)

.comment        0x00000000      0x276
 *(.comment)
 .comment       0x00000000       0x23 c:/devkitpro/devkitarm/bin/../lib/gcc/arm-eabi/4.4.0/crtbegin.o
 .comment       0x00000023       0x23 main.o
 .comment       0x00000046       0x23 nds_loader_arm7.o
 .comment       0x00000069       0x23 c:/devkitPro/libnds/lib\libdswifi7.a(wifi_arm7.o)
 .comment       0x0000008c       0x23 c:/devkitPro/libnds/lib\libnds7.a(audio.o)
 .comment       0x000000af       0x23 c:/devkitPro/libnds/lib\libnds7.a(clock.o)
 .comment       0x000000d2       0x23 c:/devkitPro/libnds/lib\libnds7.a(input.o)
 .comment       0x000000f5       0x23 c:/devkitPro/libnds/lib\libnds7.a(microphone.o)
 .comment       0x00000118       0x23 c:/devkitPro/libnds/lib\libnds7.a(spi.o)
 .comment       0x0000013b       0x23 c:/devkitPro/libnds/lib\libnds7.a(system.o)
 .comment       0x0000015e       0x23 c:/devkitPro/libnds/lib\libnds7.a(touch.o)
 .comment       0x00000181       0x23 c:/devkitPro/libnds/lib\libnds7.a(userSettings.o)
 .comment       0x000001a4       0x23 c:/devkitPro/libnds/lib\libnds7.a(fifosystem.o)
 .comment       0x000001c7       0x23 c:/devkitPro/libnds/lib\libnds7.a(interrupts.o)
 .comment       0x000001ea       0x23 c:/devkitpro/devkitarm/bin/../lib/gcc/arm-eabi/4.4.0/../../../../arm-eabi/lib\libg.a(lib_a-init.o)
 .comment       0x0000020d       0x23 c:/devkitpro/devkitarm/bin/../lib/gcc/arm-eabi/4.4.0/../../../../arm-eabi/lib\libg.a(lib_a-memcpy.o)
 .comment       0x00000230       0x23 c:/devkitpro/devkitarm/bin/../lib/gcc/arm-eabi/4.4.0/../../../../arm-eabi/lib\libg.a(lib_a-memset.o)
 .comment       0x00000253       0x23 c:/devkitpro/devkitarm/bin/../lib/gcc/arm-eabi/4.4.0/crtend.o

.debug
 *(.debug)

.line
 *(.line)

.debug_srcinfo
 *(.debug_srcinfo)

.debug_sfnames
 *(.debug_sfnames)

.debug_aranges  0x00000000       0x80
 *(.debug_aranges)
 .debug_aranges
                0x00000000       0x20 main.o
 .debug_aranges
                0x00000020       0x20 nds_loader_arm7.o
 .debug_aranges
                0x00000040       0x20 c:/devkitPro/libnds/lib\libdswifi7.a(wifi_arm7.o)
 .debug_aranges
                0x00000060       0x20 c:/devkitPro/libnds/lib\libdswifi7.a(spinlock.o)

.debug_pubnames
                0x00000000      0x60f
 *(.debug_pubnames)
 .debug_pubnames
                0x00000000       0x3f main.o
 .debug_pubnames
                0x0000003f       0x28 nds_loader_arm7.o
 .debug_pubnames
                0x00000067      0x5a8 c:/devkitPro/libnds/lib\libdswifi7.a(wifi_arm7.o)

.debug_info     0x00000000     0x2838
 *(.debug_info)
 .debug_info    0x00000000      0x21a main.o
 .debug_info    0x0000021a      0x152 nds_loader_arm7.o
 .debug_info    0x0000036c     0x240c c:/devkitPro/libnds/lib\libdswifi7.a(wifi_arm7.o)
 .debug_info    0x00002778       0xc0 c:/devkitPro/libnds/lib\libdswifi7.a(spinlock.o)

.debug_abbrev   0x00000000      0x6b4
 *(.debug_abbrev)
 .debug_abbrev  0x00000000       0xc9 main.o
 .debug_abbrev  0x000000c9       0x5e nds_loader_arm7.o
 .debug_abbrev  0x00000127      0x579 c:/devkitPro/libnds/lib\libdswifi7.a(wifi_arm7.o)
 .debug_abbrev  0x000006a0       0x14 c:/devkitPro/libnds/lib\libdswifi7.a(spinlock.o)

.debug_line     0x00000000      0xcda
 *(.debug_line)
 .debug_line    0x00000000       0xbf main.o
 .debug_line    0x000000bf       0x91 nds_loader_arm7.o
 .debug_line    0x00000150      0xaef c:/devkitPro/libnds/lib\libdswifi7.a(wifi_arm7.o)
 .debug_line    0x00000c3f       0x9b c:/devkitPro/libnds/lib\libdswifi7.a(spinlock.o)

.debug_frame    0x00000000      0x6a8
 *(.debug_frame)
 .debug_frame   0x00000000      0x6a8 c:/devkitPro/libnds/lib\libdswifi7.a(wifi_arm7.o)

.debug_str      0x00000000     0x10ae
 *(.debug_str)
 .debug_str     0x00000000      0x299 main.o
                                0x2d2 (size before relaxing)
 .debug_str     0x00000299       0x41 nds_loader_arm7.o
                                0x1f5 (size before relaxing)
 .debug_str     0x000002da      0xdd4 c:/devkitPro/libnds/lib\libdswifi7.a(wifi_arm7.o)
                               0x10d2 (size before relaxing)

.debug_loc      0x00000000     0x1321
 *(.debug_loc)
 .debug_loc     0x00000000       0x3c main.o
 .debug_loc     0x0000003c       0x14 nds_loader_arm7.o
 .debug_loc     0x00000050     0x12d1 c:/devkitPro/libnds/lib\libdswifi7.a(wifi_arm7.o)

.debug_macinfo
 *(.debug_macinfo)

.debug_weaknames
 *(.debug_weaknames)

.debug_funcnames
 *(.debug_funcnames)

.debug_typenames
 *(.debug_typenames)

.debug_varnames
 *(.debug_varnames)

.stack          0x00080000        0x0
                0x00080000                _stack = .
 *(.stack)
LOAD c:/devkitpro/devkitarm/bin/../lib/gcc/arm-eabi/4.4.0/../../../../arm-eabi/lib/ds_arm7_crt0.o
LOAD c:/devkitpro/devkitarm/bin/../lib/gcc/arm-eabi/4.4.0/crti.o
LOAD c:/devkitpro/devkitarm/bin/../lib/gcc/arm-eabi/4.4.0/crtbegin.o
LOAD main.o
LOAD nds_loader_arm7.o
LOAD c:/devkitPro/libnds/lib\libdswifi7.a
LOAD c:/devkitPro/libnds/lib\libmm7.a
LOAD c:/devkitPro/libnds/lib\libnds7.a
START GROUP
LOAD c:/devkitpro/devkitarm/bin/../lib/gcc/arm-eabi/4.4.0\libgcc.a
LOAD c:/devkitpro/devkitarm/bin/../lib/gcc/arm-eabi/4.4.0/../../../../arm-eabi/lib\libg.a
LOAD c:/devkitpro/devkitarm/bin/../lib/gcc/arm-eabi/4.4.0/../../../../arm-eabi/lib\libc.a
LOAD c:/devkitpro/devkitarm/bin/../lib/gcc/arm-eabi/4.4.0/../../../../arm-eabi/lib\libsysbase.a
END GROUP
LOAD c:/devkitpro/devkitarm/bin/../lib/gcc/arm-eabi/4.4.0/crtend.o
LOAD c:/devkitpro/devkitarm/bin/../lib/gcc/arm-eabi/4.4.0/crtn.o
OUTPUT(c:/progetti/DsOS/arm7/DsOS.arm7.elf elf32-littlearm)

.ARM.attributes
                0x00000000       0x2e
 .ARM.attributes
                0x00000000       0x1e c:/devkitpro/devkitarm/bin/../lib/gcc/arm-eabi/4.4.0/../../../../arm-eabi/lib/ds_arm7_crt0.o
 .ARM.attributes
                0x0000001e       0x1e c:/devkitpro/devkitarm/bin/../lib/gcc/arm-eabi/4.4.0/crti.o
 .ARM.attributes
                0x0000003c       0x2e c:/devkitpro/devkitarm/bin/../lib/gcc/arm-eabi/4.4.0/crtbegin.o
 .ARM.attributes
                0x0000006a       0x2a main.o
 .ARM.attributes
                0x00000094       0x2a nds_loader_arm7.o
 .ARM.attributes
                0x000000be       0x2a c:/devkitPro/libnds/lib\libdswifi7.a(wifi_arm7.o)
 .ARM.attributes
                0x000000e8       0x1e c:/devkitPro/libnds/lib\libdswifi7.a(spinlock.o)
 .ARM.attributes
                0x00000106       0x20 c:/devkitPro/libnds/lib\libmm7.a(mm_main.o)
 .ARM.attributes
                0x00000126       0x20 c:/devkitPro/libnds/lib\libmm7.a(mm_mas.o)
 .ARM.attributes
                0x00000146       0x1e c:/devkitPro/libnds/lib\libmm7.a(mm_mas_arm.o)
 .ARM.attributes
                0x00000164       0x1e c:/devkitPro/libnds/lib\libmm7.a(mm_comms7.o)
 .ARM.attributes
                0x00000182       0x20 c:/devkitPro/libnds/lib\libmm7.a(mm_mixer_super.o)
 .ARM.attributes
                0x000001a2       0x1e c:/devkitPro/libnds/lib\libmm7.a(mm_reverb.o)
 .ARM.attributes
                0x000001c0       0x20 c:/devkitPro/libnds/lib\libmm7.a(mm_stream.o)
 .ARM.attributes
                0x000001e0       0x1e c:/devkitPro/libnds/lib\libmm7.a(mm_effect.o)
 .ARM.attributes
                0x000001fe       0x2a c:/devkitPro/libnds/lib\libnds7.a(audio.o)
 .ARM.attributes
                0x00000228       0x2a c:/devkitPro/libnds/lib\libnds7.a(clock.o)
 .ARM.attributes
                0x00000252       0x2a c:/devkitPro/libnds/lib\libnds7.a(input.o)
 .ARM.attributes
                0x0000027c       0x2a c:/devkitPro/libnds/lib\libnds7.a(microphone.o)
 .ARM.attributes
                0x000002a6       0x2a c:/devkitPro/libnds/lib\libnds7.a(spi.o)
 .ARM.attributes
                0x000002d0       0x2a c:/devkitPro/libnds/lib\libnds7.a(system.o)
 .ARM.attributes
                0x000002fa       0x2a c:/devkitPro/libnds/lib\libnds7.a(touch.o)
 .ARM.attributes
                0x00000324       0x2a c:/devkitPro/libnds/lib\libnds7.a(userSettings.o)
 .ARM.attributes
                0x0000034e       0x2a c:/devkitPro/libnds/lib\libnds7.a(fifosystem.o)
 .ARM.attributes
                0x00000378       0x2a c:/devkitPro/libnds/lib\libnds7.a(interrupts.o)
 .ARM.attributes
                0x000003a2       0x1e c:/devkitPro/libnds/lib\libnds7.a(biosCalls.o)
 .ARM.attributes
                0x000003c0       0x1e c:/devkitPro/libnds/lib\libnds7.a(interruptDispatcher.o)
 .ARM.attributes
                0x000003de       0x1e c:/devkitpro/devkitarm/bin/../lib/gcc/arm-eabi/4.4.0\libgcc.a(_divsi3.o)
 .ARM.attributes
                0x000003fc       0x1e c:/devkitpro/devkitarm/bin/../lib/gcc/arm-eabi/4.4.0\libgcc.a(_dvmd_tls.o)
 .ARM.attributes
                0x0000041a       0x1e c:/devkitpro/devkitarm/bin/../lib/gcc/arm-eabi/4.4.0\libgcc.a(_call_via_rX.o)
 .ARM.attributes
                0x00000438       0x2e c:/devkitpro/devkitarm/bin/../lib/gcc/arm-eabi/4.4.0/../../../../arm-eabi/lib\libg.a(lib_a-init.o)
 .ARM.attributes
                0x00000466       0x2e c:/devkitpro/devkitarm/bin/../lib/gcc/arm-eabi/4.4.0/../../../../arm-eabi/lib\libg.a(lib_a-memcpy.o)
 .ARM.attributes
                0x00000494       0x2e c:/devkitpro/devkitarm/bin/../lib/gcc/arm-eabi/4.4.0/../../../../arm-eabi/lib\libg.a(lib_a-memset.o)
 .ARM.attributes
                0x000004c2       0x2c c:/devkitpro/devkitarm/bin/../lib/gcc/arm-eabi/4.4.0/crtend.o
 .ARM.attributes
                0x000004ee       0x1e c:/devkitpro/devkitarm/bin/../lib/gcc/arm-eabi/4.4.0/crtn.o

.debug_ranges   0x00000000      0x550
 .debug_ranges  0x00000000      0x550 c:/devkitPro/libnds/lib\libdswifi7.a(wifi_arm7.o)
